; Function Attrs: mustprogress uwtable
define void @_ZN15TCPStreamDialog33on_actionPreviousStream_triggeredEv(ptr nocapture noundef nonnull align 8 dereferenceable(584) %0) local_unnamed_addr #2 align 2 {
  %2 = getelementptr inbounds i8, ptr %0, i64 196
  %3 = load i32, ptr %2, align 4
  %.not = icmp eq i32 %3, 0
  br i1 %.not, label %11, label %4

4:                                                ; preds = %1
  %5 = getelementptr inbounds i8, ptr %0, i64 64
  %6 = load ptr, ptr %5, align 8
  %7 = getelementptr inbounds i8, ptr %6, i64 320
  %8 = load ptr, ptr %7, align 8
  %9 = add i32 %3, -1
  tail call void @_ZN8QSpinBox8setValueEi(ptr noundef nonnull align 8 dereferenceable(40) %8, i32 noundef %9)
  %10 = getelementptr inbounds i8, ptr %0, i64 536
  tail call void @_ZN15TCPStreamDialog12GraphUpdater8doUpdateEv(ptr noundef nonnull align 8 dereferenceable(17) %10)
  br label %11

11:                                               ; preds = %4, %1
  ret void
}